target datalayout = "e-m:e-p270:32:32-p271:32:32-p272:64:64-i64:64-i128:128-f80:128-n8:16:32:64-S128"
target triple = "x86_64-pc-linux-gnu"

%"class.icu_77::UnicodeSet" = type <{ %"class.icu_77::UnicodeFilter", ptr, i32, i32, i8, [7 x i8], ptr, ptr, i32, [4 x i8], ptr, i32, [4 x i8], ptr, ptr, [25 x i32], [4 x i8] }>
%"class.icu_77::UnicodeFilter" = type { %"class.icu_77::UnicodeFunctor", %"class.icu_77::UnicodeMatcher" }
%"class.icu_77::UnicodeFunctor" = type { %"class.icu_77::UObject" }
%"class.icu_77::UObject" = type { ptr }
%"class.icu_77::UnicodeMatcher" = type { ptr }
%"class.icu_77::UnicodeString" = type { %"class.icu_77::Replaceable", %"union.icu_77::UnicodeString::StackBufferOrFields" }
%"class.icu_77::Replaceable" = type { %"class.icu_77::UObject" }
%"union.icu_77::UnicodeString::StackBufferOrFields" = type { %struct.anon.0, [32 x i8] }
%struct.anon.0 = type { i16, i32, i32, ptr }
%"class.icu_77::RBBIRuleScanner" = type { ptr, ptr, i32, i32, i8, i32, i32, i32, %"struct.icu_77::RBBIRuleScanner::RBBIRuleChar", %"class.icu_77::UnicodeString", ptr, [100 x i16], i32, [100 x ptr], i32, i8, i8, i8, ptr, ptr, [10 x %"class.icu_77::UnicodeSet"], i32, i32, ptr, ptr, ptr, ptr }
%"struct.icu_77::RBBIRuleScanner::RBBIRuleChar" = type <{ i32, i8, [3 x i8] }>
%"class.icu_77::RBBIRuleBuilder" = type { ptr, ptr, ptr, ptr, ptr, %"class.icu_77::UnicodeString", ptr, ptr, ptr, ptr, ptr, ptr, i8, i8, ptr, ptr, ptr, ptr }
%struct.UParseError = type { i32, i32, [16 x i16], [16 x i16] }

; Function Attrs: inlinehint mustprogress nounwind uwtable
define internal noundef signext i8 @_ZL9U_SUCCESS10UErrorCode(i32 noundef %0) #5 {
  %2 = alloca i32, align 4
  store i32 %0, ptr %2, align 4, !tbaa !53
  %3 = load i32, ptr %2, align 4, !tbaa !53
  %4 = icmp sle i32 %3, 0
  %5 = zext i1 %4 to i8
  ret i8 %5
}

; Function Attrs: mustprogress uwtable
define void @_ZN6icu_7715RBBIRuleScanner5errorE10UErrorCode(ptr noundef nonnull align 8 dereferenceable(3192) %0, i32 noundef %1) #0 align 2 {
  %3 = alloca ptr, align 8
  %4 = alloca i32, align 4
  store ptr %0, ptr %3, align 8, !tbaa !3
  store i32 %1, ptr %4, align 4, !tbaa !53
  %5 = load ptr, ptr %3, align 8
  %6 = getelementptr inbounds nuw %"class.icu_77::RBBIRuleScanner", ptr %5, i32 0, i32 1
  %7 = load ptr, ptr %6, align 8, !tbaa !12
  %8 = getelementptr inbounds nuw %"class.icu_77::RBBIRuleBuilder", ptr %7, i32 0, i32 2
  %9 = load ptr, ptr %8, align 8, !tbaa !44
  %10 = load i32, ptr %9, align 4, !tbaa !53
  %11 = call noundef signext i8 @_ZL9U_SUCCESS10UErrorCode(i32 noundef %10)
  %12 = icmp ne i8 %11, 0
  br i1 %12, label %13, label %52

13:                                               ; preds = %2
  %14 = load i32, ptr %4, align 4, !tbaa !53
  %15 = getelementptr inbounds nuw %"class.icu_77::RBBIRuleScanner", ptr %5, i32 0, i32 1
  %16 = load ptr, ptr %15, align 8, !tbaa !12
  %17 = getelementptr inbounds nuw %"class.icu_77::RBBIRuleBuilder", ptr %16, i32 0, i32 2
  %18 = load ptr, ptr %17, align 8, !tbaa !44
  store i32 %14, ptr %18, align 4, !tbaa !53
  %19 = getelementptr inbounds nuw %"class.icu_77::RBBIRuleScanner", ptr %5, i32 0, i32 1
  %20 = load ptr, ptr %19, align 8, !tbaa !12
  %21 = getelementptr inbounds nuw %"class.icu_77::RBBIRuleBuilder", ptr %20, i32 0, i32 3
  %22 = load ptr, ptr %21, align 8, !tbaa !96
  %23 = icmp ne ptr %22, null
  br i1 %23, label %24, label %51

24:                                               ; preds = %13
  %25 = getelementptr inbounds nuw %"class.icu_77::RBBIRuleScanner", ptr %5, i32 0, i32 5
  %26 = load i32, ptr %25, align 4, !tbaa !27
  %27 = getelementptr inbounds nuw %"class.icu_77::RBBIRuleScanner", ptr %5, i32 0, i32 1
  %28 = load ptr, ptr %27, align 8, !tbaa !12
  %29 = getelementptr inbounds nuw %"class.icu_77::RBBIRuleBuilder", ptr %28, i32 0, i32 3
  %30 = load ptr, ptr %29, align 8, !tbaa !96
  %31 = getelementptr inbounds nuw %struct.UParseError, ptr %30, i32 0, i32 0
  store i32 %26, ptr %31, align 4, !tbaa !97
  %32 = getelementptr inbounds nuw %"class.icu_77::RBBIRuleScanner", ptr %5, i32 0, i32 6
  %33 = load i32, ptr %32, align 8, !tbaa !28
  %34 = getelementptr inbounds nuw %"class.icu_77::RBBIRuleScanner", ptr %5, i32 0, i32 1
  %35 = load ptr, ptr %34, align 8, !tbaa !12
  %36 = getelementptr inbounds nuw %"class.icu_77::RBBIRuleBuilder", ptr %35, i32 0, i32 3
  %37 = load ptr, ptr %36, align 8, !tbaa !96
  %38 = getelementptr inbounds nuw %struct.UParseError, ptr %37, i32 0, i32 1
  store i32 %33, ptr %38, align 4, !tbaa !99
  %39 = getelementptr inbounds nuw %"class.icu_77::RBBIRuleScanner", ptr %5, i32 0, i32 1
  %40 = load ptr, ptr %39, align 8, !tbaa !12
  %41 = getelementptr inbounds nuw %"class.icu_77::RBBIRuleBuilder", ptr %40, i32 0, i32 3
  %42 = load ptr, ptr %41, align 8, !tbaa !96
  %43 = getelementptr inbounds nuw %struct.UParseError, ptr %42, i32 0, i32 2
  %44 = getelementptr inbounds [16 x i16], ptr %43, i64 0, i64 0
  store i16 0, ptr %44, align 4, !tbaa !100
  %45 = getelementptr inbounds nuw %"class.icu_77::RBBIRuleScanner", ptr %5, i32 0, i32 1
  %46 = load ptr, ptr %45, align 8, !tbaa !12
  %47 = getelementptr inbounds nuw %"class.icu_77::RBBIRuleBuilder", ptr %46, i32 0, i32 3
  %48 = load ptr, ptr %47, align 8, !tbaa !96
  %49 = getelementptr inbounds nuw %struct.UParseError, ptr %48, i32 0, i32 3
  %50 = getelementptr inbounds [16 x i16], ptr %49, i64 0, i64 0
  store i16 0, ptr %50, align 4, !tbaa !100
  br label %51

51:                                               ; preds = %24, %13
  br label %52

52:                                               ; preds = %51, %2
  ret void
}

; Function Attrs: inlinehint mustprogress nounwind uwtable
define internal noundef signext i8 @_ZL9U_FAILURE10UErrorCode(i32 noundef %0) #5 {
  %2 = alloca i32, align 4
  store i32 %0, ptr %2, align 4, !tbaa !53
  %3 = load i32, ptr %2, align 4, !tbaa !53
  %4 = icmp sgt i32 %3, 0
  %5 = zext i1 %4 to i8
  ret i8 %5
}

; Function Attrs: mustprogress uwtable
define noundef ptr @_ZN6icu_7715RBBIRuleScanner11pushNewNodeENS_8RBBINode8NodeTypeE(ptr noundef nonnull align 8 dereferenceable(3192) %0, i32 noundef %1) #0 align 2 personality ptr @__gxx_personality_v0 {
  %3 = alloca ptr, align 8
  %4 = alloca ptr, align 8
  %5 = alloca i32, align 4
  %6 = alloca ptr, align 8
  %7 = alloca i1, align 1
  %8 = alloca ptr, align 8
  %9 = alloca i32, align 4
  store ptr %0, ptr %4, align 8, !tbaa !3
  store i32 %1, ptr %5, align 4, !tbaa !92
  %10 = load ptr, ptr %4, align 8
  %11 = getelementptr inbounds nuw %"class.icu_77::RBBIRuleScanner", ptr %10, i32 0, i32 1
  %12 = load ptr, ptr %11, align 8, !tbaa !12
  %13 = getelementptr inbounds nuw %"class.icu_77::RBBIRuleBuilder", ptr %12, i32 0, i32 2
  %14 = load ptr, ptr %13, align 8, !tbaa !44
  %15 = load i32, ptr %14, align 4, !tbaa !53
  %16 = call noundef signext i8 @_ZL9U_FAILURE10UErrorCode(i32 noundef %15)
  %17 = icmp ne i8 %16, 0
  br i1 %17, label %18, label %19

18:                                               ; preds = %2
  store ptr null, ptr %3, align 8
  br label %71

19:                                               ; preds = %2
  %20 = getelementptr inbounds nuw %"class.icu_77::RBBIRuleScanner", ptr %10, i32 0, i32 14
  %21 = load i32, ptr %20, align 8, !tbaa !36
  %22 = icmp sge i32 %21, 99
  br i1 %22, label %23, label %24

23:                                               ; preds = %19
  call void @_ZN6icu_7715RBBIRuleScanner5errorE10UErrorCode(ptr noundef nonnull align 8 dereferenceable(3192) %10, i32 noundef 66051)
  store ptr null, ptr %3, align 8
  br label %71

24:                                               ; preds = %19
  %25 = getelementptr inbounds nuw %"class.icu_77::RBBIRuleScanner", ptr %10, i32 0, i32 14
  %26 = load i32, ptr %25, align 8, !tbaa !36
  %27 = add nsw i32 %26, 1
  store i32 %27, ptr %25, align 8, !tbaa !36
  %28 = call noundef ptr @_ZN6icu_777UMemorynwEm(i64 noundef 160) #12
  %29 = icmp eq ptr %28, null
  store i1 false, ptr %7, align 1
  br i1 %29, label %37, label %30

30:                                               ; preds = %24
  store ptr %28, ptr %6, align 8
  store i1 true, ptr %7, align 1
  %31 = load i32, ptr %5, align 4, !tbaa !92
  %32 = getelementptr inbounds nuw %"class.icu_77::RBBIRuleScanner", ptr %10, i32 0, i32 1
  %33 = load ptr, ptr %32, align 8, !tbaa !12
  %34 = getelementptr inbounds nuw %"class.icu_77::RBBIRuleBuilder", ptr %33, i32 0, i32 2
  %35 = load ptr, ptr %34, align 8, !tbaa !44
  invoke void @_ZN6icu_778RBBINodeC1ENS0_8NodeTypeER10UErrorCode(ptr noundef nonnull align 8 dereferenceable(160) %28, i32 noundef %31, ptr noundef nonnull align 4 dereferenceable(4) %35)
          to label %36 unwind label %56

36:                                               ; preds = %30
  br label %37

37:                                               ; preds = %36, %24
  %38 = phi ptr [ %28, %36 ], [ null, %24 ]
  %39 = getelementptr inbounds nuw %"class.icu_77::RBBIRuleScanner", ptr %10, i32 0, i32 13
  %40 = getelementptr inbounds nuw %"class.icu_77::RBBIRuleScanner", ptr %10, i32 0, i32 14
  %41 = load i32, ptr %40, align 8, !tbaa !36
  %42 = sext i32 %41 to i64
  %43 = getelementptr inbounds [100 x ptr], ptr %39, i64 0, i64 %42
  store ptr %38, ptr %43, align 8, !tbaa !34
  %44 = getelementptr inbounds nuw %"class.icu_77::RBBIRuleScanner", ptr %10, i32 0, i32 13
  %45 = getelementptr inbounds nuw %"class.icu_77::RBBIRuleScanner", ptr %10, i32 0, i32 14
  %46 = load i32, ptr %45, align 8, !tbaa !36
  %47 = sext i32 %46 to i64
  %48 = getelementptr inbounds [100 x ptr], ptr %44, i64 0, i64 %47
  %49 = load ptr, ptr %48, align 8, !tbaa !34
  %50 = icmp eq ptr %49, null
  br i1 %50, label %51, label %64

51:                                               ; preds = %37
  %52 = getelementptr inbounds nuw %"class.icu_77::RBBIRuleScanner", ptr %10, i32 0, i32 1
  %53 = load ptr, ptr %52, align 8, !tbaa !12
  %54 = getelementptr inbounds nuw %"class.icu_77::RBBIRuleBuilder", ptr %53, i32 0, i32 2
  %55 = load ptr, ptr %54, align 8, !tbaa !44
  store i32 7, ptr %55, align 4, !tbaa !53
  br label %64

56:                                               ; preds = %30
  %57 = landingpad { ptr, i32 }
          cleanup
  %58 = extractvalue { ptr, i32 } %57, 0
  store ptr %58, ptr %8, align 8
  %59 = extractvalue { ptr, i32 } %57, 1
  store i32 %59, ptr %9, align 4
  %60 = load i1, ptr %7, align 1
  br i1 %60, label %61, label %63

61:                                               ; preds = %56
  %62 = load ptr, ptr %6, align 8
  call void @_ZN6icu_777UMemorydlEPv(ptr noundef %62) #12
  br label %63

63:                                               ; preds = %61, %56
  br label %73

64:                                               ; preds = %51, %37
  %65 = getelementptr inbounds nuw %"class.icu_77::RBBIRuleScanner", ptr %10, i32 0, i32 13
  %66 = getelementptr inbounds nuw %"class.icu_77::RBBIRuleScanner", ptr %10, i32 0, i32 14
  %67 = load i32, ptr %66, align 8, !tbaa !36
  %68 = sext i32 %67 to i64
  %69 = getelementptr inbounds [100 x ptr], ptr %65, i64 0, i64 %68
  %70 = load ptr, ptr %69, align 8, !tbaa !34
  store ptr %70, ptr %3, align 8
  br label %71

71:                                               ; preds = %64, %23, %18
  %72 = load ptr, ptr %3, align 8
  ret ptr %72

73:                                               ; preds = %63
  %74 = load ptr, ptr %8, align 8
  %75 = load i32, ptr %9, align 4
  %76 = insertvalue { ptr, i32 } poison, ptr %74, 0
  %77 = insertvalue { ptr, i32 } %76, i32 %75, 1
  resume { ptr, i32 } %77
}