; Function Attrs: mustprogress uwtable
define noundef ptr @_ZN6icu_7715RBBIRuleScanner11pushNewNodeENS_8RBBINode8NodeTypeE(ptr noundef nonnull align 8 captures(none) dereferenceable(3192) %0, i32 noundef %1) local_unnamed_addr #0 align 2 personality ptr @__gxx_personality_v0 {
  %3 = getelementptr inbounds nuw i8, ptr %0, i64 8
  %4 = load ptr, ptr %3, align 8, !tbaa !12
  %5 = getelementptr inbounds nuw i8, ptr %4, i64 16
  %6 = load ptr, ptr %5, align 8, !tbaa !35
  %7 = load i32, ptr %6, align 4, !tbaa !45
  %8 = icmp slt i32 %7, 1
  br i1 %8, label %9, label %_ZN6icu_7715RBBIRuleScanner5errorE10UErrorCode.exit

9:                                                ; preds = %2
  %10 = getelementptr inbounds nuw i8, ptr %0, i64 1128
  %11 = load i32, ptr %10, align 8, !tbaa !56
  %12 = icmp sgt i32 %11, 98
  br i1 %12, label %13, label %24

13:                                               ; preds = %9
  store i32 66051, ptr %6, align 4, !tbaa !45
  %14 = getelementptr inbounds nuw i8, ptr %4, i64 24
  %15 = load ptr, ptr %14, align 8, !tbaa !58
  %.not1.i = icmp eq ptr %15, null
  br i1 %.not1.i, label %_ZN6icu_7715RBBIRuleScanner5errorE10UErrorCode.exit, label %16

16:                                               ; preds = %13
  %17 = getelementptr inbounds nuw i8, ptr %0, i64 28
  %18 = load i32, ptr %17, align 4, !tbaa !24
  store i32 %18, ptr %15, align 4, !tbaa !59
  %19 = getelementptr inbounds nuw i8, ptr %0, i64 32
  %20 = load i32, ptr %19, align 8, !tbaa !25
  %21 = getelementptr inbounds nuw i8, ptr %15, i64 4
  store i32 %20, ptr %21, align 4, !tbaa !61
  %22 = getelementptr inbounds nuw i8, ptr %15, i64 8
  store i16 0, ptr %22, align 4, !tbaa !50
  %23 = getelementptr inbounds nuw i8, ptr %15, i64 40
  store i16 0, ptr %23, align 4, !tbaa !50
  br label %_ZN6icu_7715RBBIRuleScanner5errorE10UErrorCode.exit

24:                                               ; preds = %9
  %25 = add nsw i32 %11, 1
  store i32 %25, ptr %10, align 8, !tbaa !56
  %26 = tail call noundef ptr @_ZN6icu_777UMemorynwEm(i64 noundef 160) #13
  %27 = icmp eq ptr %26, null
  br i1 %27, label %37, label %28

28:                                               ; preds = %24
  %29 = load ptr, ptr %3, align 8, !tbaa !12
  %30 = getelementptr inbounds nuw i8, ptr %29, i64 16
  %31 = load ptr, ptr %30, align 8, !tbaa !35
  invoke void @_ZN6icu_778RBBINodeC1ENS0_8NodeTypeER10UErrorCode(ptr noundef nonnull align 8 dereferenceable(160) %26, i32 noundef %1, ptr noundef nonnull align 4 dereferenceable(4) %31)
          to label %32 unwind label %45

32:                                               ; preds = %28
  %33 = getelementptr inbounds nuw i8, ptr %0, i64 328
  %34 = load i32, ptr %10, align 8, !tbaa !56
  %35 = sext i32 %34 to i64
  %36 = getelementptr inbounds [100 x ptr], ptr %33, i64 0, i64 %35
  store ptr %26, ptr %36, align 8, !tbaa !31
  br label %_ZN6icu_7715RBBIRuleScanner5errorE10UErrorCode.exit

37:                                               ; preds = %24
  %38 = getelementptr inbounds nuw i8, ptr %0, i64 328
  %39 = load i32, ptr %10, align 8, !tbaa !56
  %40 = sext i32 %39 to i64
  %41 = getelementptr inbounds [100 x ptr], ptr %38, i64 0, i64 %40
  store ptr null, ptr %41, align 8, !tbaa !31
  %42 = load ptr, ptr %3, align 8, !tbaa !12
  %43 = getelementptr inbounds nuw i8, ptr %42, i64 16
  %44 = load ptr, ptr %43, align 8, !tbaa !35
  store i32 7, ptr %44, align 4, !tbaa !45
  br label %_ZN6icu_7715RBBIRuleScanner5errorE10UErrorCode.exit

45:                                               ; preds = %28
  %46 = landingpad { ptr, i32 }
          cleanup
  tail call void @_ZN6icu_777UMemorydlEPv(ptr noundef nonnull %26) #13
  resume { ptr, i32 } %46

_ZN6icu_7715RBBIRuleScanner5errorE10UErrorCode.exit: ; preds = %37, %32, %16, %13, %2
  %.0 = phi ptr [ null, %2 ], [ null, %13 ], [ null, %16 ], [ null, %37 ], [ %26, %32 ]
  ret ptr %.0
}